target datalayout = "e-m:e-p270:32:32-p271:32:32-p272:64:64-i64:64-i128:128-f80:128-n8:16:32:64-S128"
target triple = "x86_64-pc-linux-gnu"

%"class.pybind11::object" = type { %"class.pybind11::handle" }
%"class.pybind11::handle" = type { ptr }
%"class.pybind11::class_" = type { %"class.pybind11::detail::generic_type" }
%"class.pybind11::detail::generic_type" = type { %"class.pybind11::object" }
%"struct.pybind11::detail::initimpl::constructor" = type { i8 }
%class.anon.600 = type { i8 }
%"struct.pybind11::detail::is_new_style_constructor" = type { i8 }

@.str = private unnamed_addr constant [7 x i8] c"Empty0\00", align 1
@.str.1 = private unnamed_addr constant [8 x i8] c"get_msg\00", align 1
@.str.137 = private unnamed_addr constant [9 x i8] c"__init__\00", align 1

; Function Attrs: mustprogress uwtable
define linkonce_odr hidden void @_ZN8pybind116detail8initimpl11constructorIJEE7executeINS_6class_IN10test_class24pr4220_tripped_over_this7SoEmptyILi0EEEJEEEJETnNSt9enable_ifIXntsrT_9has_aliasEiE4typeELi0EEEvRSC_DpRKT0_(ptr noundef nonnull align 8 dereferenceable(8) %0) #4 comdat align 2 {
  %2 = alloca ptr, align 8
  %3 = alloca %class.anon.600, align 1
  %4 = alloca %"struct.pybind11::detail::is_new_style_constructor", align 1
  store ptr %0, ptr %2, align 8, !tbaa !84
  %5 = load ptr, ptr %2, align 8, !tbaa !84
  call void @llvm.lifetime.start.p0(i64 1, ptr %3) #24
  call void @llvm.lifetime.start.p0(i64 1, ptr %4) #24
  %6 = call noundef nonnull align 8 dereferenceable(8) ptr @_ZN8pybind116class_IN10test_class24pr4220_tripped_over_this7SoEmptyILi0EEEJEE3defIZNS_6detail8initimpl11constructorIJEE7executeIS5_JETnNSt9enable_ifIXntsrT_9has_aliasEiE4typeELi0EEEvRSD_DpRKT0_EUlRNS7_16value_and_holderEE_JNS7_24is_new_style_constructorEEEERS5_PKcOSD_SK_(ptr noundef nonnull align 8 dereferenceable(8) %5, ptr noundef @.str.137, ptr noundef nonnull align 1 dereferenceable(1) %3, ptr noundef nonnull align 1 dereferenceable(1) %4)
  call void @llvm.lifetime.end.p0(i64 1, ptr %4) #24
  call void @llvm.lifetime.end.p0(i64 1, ptr %3) #24
  ret void
}

; Function Attrs: mustprogress uwtable
define linkonce_odr hidden noundef nonnull align 8 dereferenceable(8) ptr @_ZN8pybind116class_IN10test_class24pr4220_tripped_over_this7SoEmptyILi0EEEJEE3defIJEJEEERS5_RKNS_6detail8initimpl11constructorIJDpT_EEEDpRKT0_(ptr noundef nonnull align 8 dereferenceable(8) %0, ptr noundef nonnull align 1 dereferenceable(1) %1) #4 comdat align 2 {
  %3 = alloca ptr, align 8
  %4 = alloca ptr, align 8
  store ptr %0, ptr %3, align 8, !tbaa !84
  store ptr %1, ptr %4, align 8, !tbaa !99
  %5 = load ptr, ptr %3, align 8
  call void @_ZN8pybind116detail8initimpl11constructorIJEE7executeINS_6class_IN10test_class24pr4220_tripped_over_this7SoEmptyILi0EEEJEEEJETnNSt9enable_ifIXntsrT_9has_aliasEiE4typeELi0EEEvRSC_DpRKT0_(ptr noundef nonnull align 8 dereferenceable(8) %5)
  ret ptr %5
}

; Function Attrs: mustprogress nounwind uwtable
define linkonce_odr hidden void @_ZN8pybind114initIJEEENS_6detail8initimpl11constructorIJDpT_EEEv() #5 comdat {
  ret void
}

; Function Attrs: mustprogress uwtable
define hidden void @_ZN10test_class24pr4220_tripped_over_this11bind_empty0ERN8pybind117module_E(ptr noundef nonnull align 8 dereferenceable(8) %0) #4 personality ptr @__gxx_personality_v0 {
  %2 = alloca ptr, align 8
  %3 = alloca %"class.pybind11::class_", align 8
  %4 = alloca %"class.pybind11::handle", align 8
  %5 = alloca %"struct.pybind11::detail::initimpl::constructor", align 1
  %6 = alloca ptr, align 8
  %7 = alloca i32, align 4
  store ptr %0, ptr %2, align 8, !tbaa !82
  call void @llvm.lifetime.start.p0(i64 8, ptr %3) #24
  %8 = load ptr, ptr %2, align 8, !tbaa !82
  call void @llvm.memcpy.p0.p0.i64(ptr align 8 %4, ptr align 8 %8, i64 8, i1 false)
  %9 = getelementptr inbounds nuw %"class.pybind11::handle", ptr %4, i32 0, i32 0
  %10 = load ptr, ptr %9, align 8
  call void @_ZN8pybind116class_IN10test_class24pr4220_tripped_over_this7SoEmptyILi0EEEJEEC2IJEEENS_6handleEPKcDpRKT_(ptr noundef nonnull align 8 dereferenceable(8) %3, ptr %10, ptr noundef @.str)
  call void @llvm.lifetime.start.p0(i64 1, ptr %5) #24
  invoke void @_ZN8pybind114initIJEEENS_6detail8initimpl11constructorIJDpT_EEEv()
          to label %11 unwind label %16

11:                                               ; preds = %1
  %12 = invoke noundef nonnull align 8 dereferenceable(8) ptr @_ZN8pybind116class_IN10test_class24pr4220_tripped_over_this7SoEmptyILi0EEEJEE3defIJEJEEERS5_RKNS_6detail8initimpl11constructorIJDpT_EEEDpRKT0_(ptr noundef nonnull align 8 dereferenceable(8) %3, ptr noundef nonnull align 1 dereferenceable(1) %5)
          to label %13 unwind label %16

13:                                               ; preds = %11
  %14 = invoke noundef nonnull align 8 dereferenceable(8) ptr @_ZN8pybind116class_IN10test_class24pr4220_tripped_over_this7SoEmptyILi0EEEJEE3defIRFNSt7__cxx1112basic_stringIcSt11char_traitsIcESaIcEEERKS4_EJEEERS5_PKcOT_DpRKT0_(ptr noundef nonnull align 8 dereferenceable(8) %12, ptr noundef @.str.1, ptr noundef nonnull @_ZN10test_class24pr4220_tripped_over_this7get_msgINS0_7SoEmptyILi0EEEEENSt7__cxx1112basic_stringIcSt11char_traitsIcESaIcEEERKT_)
          to label %15 unwind label %16

15:                                               ; preds = %13
  call void @llvm.lifetime.end.p0(i64 1, ptr %5) #24
  call void @_ZN8pybind116objectD2Ev(ptr noundef nonnull align 8 dereferenceable(8) %3) #24
  call void @llvm.lifetime.end.p0(i64 8, ptr %3) #24
  ret void

16:                                               ; preds = %13, %11, %1
  %17 = landingpad { ptr, i32 }
          cleanup
  %18 = extractvalue { ptr, i32 } %17, 0
  store ptr %18, ptr %6, align 8
  %19 = extractvalue { ptr, i32 } %17, 1
  store i32 %19, ptr %7, align 4
  call void @llvm.lifetime.end.p0(i64 1, ptr %5) #24
  call void @_ZN8pybind116objectD2Ev(ptr noundef nonnull align 8 dereferenceable(8) %3) #24
  call void @llvm.lifetime.end.p0(i64 8, ptr %3) #24
  br label %20

20:                                               ; preds = %16
  %21 = load ptr, ptr %6, align 8
  %22 = load i32, ptr %7, align 4
  %23 = insertvalue { ptr, i32 } poison, ptr %21, 0
  %24 = insertvalue { ptr, i32 } %23, i32 %22, 1
  resume { ptr, i32 } %24
}