; Function Attrs: mustprogress uwtable
define hidden void @_ZN10test_class24pr4220_tripped_over_this11bind_empty0ERN8pybind117module_E(ptr noundef nonnull readonly align 8 captures(none) dereferenceable(8) %0) local_unnamed_addr #5 personality ptr @__gxx_personality_v0 {
  %2 = alloca %class.anon.600, align 1
  %3 = alloca %"struct.pybind11::detail::is_new_style_constructor", align 1
  %4 = alloca %"class.pybind11::class_", align 8
  call void @llvm.lifetime.start.p0(i64 8, ptr nonnull %4) #35
  %.sroa.0.0.copyload = load ptr, ptr %0, align 8
  call void @_ZN8pybind116class_IN10test_class24pr4220_tripped_over_this7SoEmptyILi0EEEJEEC2IJEEENS_6handleEPKcDpRKT_(ptr noundef nonnull align 8 dereferenceable(8) %4, ptr %.sroa.0.0.copyload, ptr noundef nonnull @.str)
  call void @llvm.lifetime.start.p0(i64 1, ptr nonnull %2) #35
  call void @llvm.lifetime.start.p0(i64 1, ptr nonnull %3) #35
  %5 = invoke noundef nonnull align 8 dereferenceable(8) ptr @_ZN8pybind116class_IN10test_class24pr4220_tripped_over_this7SoEmptyILi0EEEJEE3defIZNS_6detail8initimpl11constructorIJEE7executeIS5_JETnNSt9enable_ifIXntsrT_9has_aliasEiE4typeELi0EEEvRSD_DpRKT0_EUlRNS7_16value_and_holderEE_JNS7_24is_new_style_constructorEEEERS5_PKcOSD_SK_(ptr noundef nonnull align 8 dereferenceable(8) %4, ptr noundef nonnull @.str.137, ptr noundef nonnull align 1 dereferenceable(1) %2, ptr noundef nonnull align 1 dereferenceable(1) %3)
          to label %6 unwind label %17

6:                                                ; preds = %1
  call void @llvm.lifetime.end.p0(i64 1, ptr nonnull %3) #35
  call void @llvm.lifetime.end.p0(i64 1, ptr nonnull %2) #35
  %7 = invoke noundef nonnull align 8 dereferenceable(8) ptr @_ZN8pybind116class_IN10test_class24pr4220_tripped_over_this7SoEmptyILi0EEEJEE3defIRFNSt7__cxx1112basic_stringIcSt11char_traitsIcESaIcEEERKS4_EJEEERS5_PKcOT_DpRKT0_(ptr noundef nonnull align 8 dereferenceable(8) %4, ptr noundef nonnull @.str.1, ptr noundef nonnull @_ZN10test_class24pr4220_tripped_over_this7get_msgINS0_7SoEmptyILi0EEEEENSt7__cxx1112basic_stringIcSt11char_traitsIcESaIcEEERKT_)
          to label %8 unwind label %17

8:                                                ; preds = %6
  %9 = load ptr, ptr %4, align 8, !tbaa !80
  %.not.i.i.i = icmp eq ptr %9, null
  br i1 %.not.i.i.i, label %_ZN8pybind116objectD2Ev.exit, label %10

10:                                               ; preds = %8
  %11 = load i64, ptr %9, align 8, !tbaa !81
  %12 = add nsw i64 %11, -1
  store i64 %12, ptr %9, align 8, !tbaa !81
  %.not.i.i.i.i = icmp eq i64 %12, 0
  br i1 %.not.i.i.i.i, label %13, label %_ZN8pybind116objectD2Ev.exit

13:                                               ; preds = %10
  invoke void @_Py_Dealloc(ptr noundef nonnull %9)
          to label %_ZN8pybind116objectD2Ev.exit unwind label %14

14:                                               ; preds = %13
  %15 = landingpad { ptr, i32 }
          catch ptr null
  %16 = extractvalue { ptr, i32 } %15, 0
  call void @__clang_call_terminate(ptr %16) #36
  unreachable

_ZN8pybind116objectD2Ev.exit:                     ; preds = %8, %10, %13
  call void @llvm.lifetime.end.p0(i64 8, ptr nonnull %4) #35
  ret void

17:                                               ; preds = %1, %6
  %18 = landingpad { ptr, i32 }
          cleanup
  call void @_ZN8pybind116objectD2Ev(ptr noundef nonnull align 8 dereferenceable(8) %4) #35
  call void @llvm.lifetime.end.p0(i64 8, ptr nonnull %4) #35
  resume { ptr, i32 } %18
}